target datalayout = "e-m:e-p270:32:32-p271:32:32-p272:64:64-i64:64-i128:128-f80:128-n8:16:32:64-S128"
target triple = "x86_64-pc-linux-gnu"

%struct._lv_global_t = type { i8, i8, %struct.lv_ll_t, ptr, ptr, %struct.lv_ll_t, i8, i32, i32, ptr, %struct.lv_ll_t, ptr, %struct.lv_ll_t, ptr, ptr, i32, ptr, i8, i32, i32, ptr, i32, %struct.lv_timer_state_t, %struct.lv_anim_state_t, %struct.lv_tick_state_t, %struct._lv_draw_buf_handlers_t, %struct._lv_draw_buf_handlers_t, %struct._lv_draw_buf_handlers_t, %struct.lv_ll_t, ptr, ptr, %struct.lv_draw_global_info_t, [4 x %struct.lv_draw_sw_mask_radius_circle_dsc_t], ptr, ptr, ptr, %struct.lv_tlsf_state_t, %struct.lv_ll_t, ptr, ptr, %struct.lv_style_t, i64, ptr, i32, ptr }
%struct.lv_timer_state_t = type { %struct.lv_ll_t, i8, i8, i8, i8, i32, i8, i32, i32, i32, i32, ptr, ptr }
%struct.lv_anim_state_t = type { i8, i8, ptr, %struct.lv_ll_t }
%struct.lv_tick_state_t = type { i32, i8, ptr, ptr }
%struct._lv_draw_buf_handlers_t = type { ptr, ptr, ptr, ptr, ptr, ptr }
%struct.lv_draw_global_info_t = type { ptr, i32, i32, i32, i32, i8 }
%struct.lv_draw_sw_mask_radius_circle_dsc_t = type { ptr, ptr, ptr, ptr, i32, i32, i32 }
%struct.lv_tlsf_state_t = type { ptr, i64, i64, %struct.lv_ll_t }
%struct.lv_ll_t = type { i32, ptr, ptr }
%struct.lv_style_t = type { ptr, i32, i8 }
%struct.lv_area_t = type { i32, i32, i32, i32 }
%struct._lv_display_t = type { i32, i32, i32, i32, i32, i32, i32, ptr, ptr, ptr, ptr, ptr, i32, i32, i8, i32, i16, i32, [32 x %struct.lv_area_t], [32 x i8], i32, i32, %struct.lv_ll_t, %struct._lv_draw_buf_t, %struct._lv_draw_buf_t, ptr, ptr, ptr, ptr, ptr, ptr, ptr, ptr, ptr, ptr, i32, i8, ptr, ptr, %struct.lv_event_list_t, i8, ptr, ptr, i32, %struct.lv_area_t }
%struct._lv_draw_buf_t = type { %struct.lv_image_header_t, i32, ptr, ptr, ptr }
%struct.lv_image_header_t = type <{ i64, i32 }>
%struct.lv_event_list_t = type { %struct._lv_array_t, i8 }
%struct._lv_array_t = type { ptr, i32, i32, i32, i8 }

@lv_global = external global %struct._lv_global_t, align 8

; Function Attrs: nounwind uwtable
define void @lv_obj_report_style_change(ptr noundef %0) #0 {
  %2 = alloca ptr, align 8
  %3 = alloca ptr, align 8
  %4 = alloca i32, align 4
  store ptr %0, ptr %2, align 8, !tbaa !31
  %5 = load i8, ptr getelementptr inbounds nuw (%struct._lv_global_t, ptr @lv_global, i32 0, i32 6), align 8, !tbaa !67, !range !54, !noundef !55
  %6 = trunc i8 %5 to i1
  br i1 %6, label %8, label %7

7:                                                ; preds = %1
  br label %36

8:                                                ; preds = %1
  call void @llvm.lifetime.start.p0(i64 8, ptr %3) #6
  %9 = call ptr @lv_display_get_next(ptr noundef null)
  store ptr %9, ptr %3, align 8, !tbaa !69
  br label %10

10:                                               ; preds = %32, %8
  %11 = load ptr, ptr %3, align 8, !tbaa !69
  %12 = icmp ne ptr %11, null
  br i1 %12, label %13, label %35

13:                                               ; preds = %10
  call void @llvm.lifetime.start.p0(i64 4, ptr %4) #6
  store i32 0, ptr %4, align 4, !tbaa !32
  br label %14

14:                                               ; preds = %29, %13
  %15 = load i32, ptr %4, align 4, !tbaa !32
  %16 = load ptr, ptr %3, align 8, !tbaa !69
  %17 = getelementptr inbounds nuw %struct._lv_display_t, ptr %16, i32 0, i32 35
  %18 = load i32, ptr %17, align 8, !tbaa !70
  %19 = icmp ult i32 %15, %18
  br i1 %19, label %20, label %32

20:                                               ; preds = %14
  %21 = load ptr, ptr %2, align 8, !tbaa !31
  %22 = load ptr, ptr %3, align 8, !tbaa !69
  %23 = getelementptr inbounds nuw %struct._lv_display_t, ptr %22, i32 0, i32 28
  %24 = load ptr, ptr %23, align 8, !tbaa !81
  %25 = load i32, ptr %4, align 4, !tbaa !32
  %26 = zext i32 %25 to i64
  %27 = getelementptr inbounds nuw ptr, ptr %24, i64 %26
  %28 = load ptr, ptr %27, align 8, !tbaa !30
  call void @report_style_change_core(ptr noundef %21, ptr noundef %28)
  br label %29

29:                                               ; preds = %20
  %30 = load i32, ptr %4, align 4, !tbaa !32
  %31 = add i32 %30, 1
  store i32 %31, ptr %4, align 4, !tbaa !32
  br label %14, !llvm.loop !82

32:                                               ; preds = %14
  %33 = load ptr, ptr %3, align 8, !tbaa !69
  %34 = call ptr @lv_display_get_next(ptr noundef %33)
  store ptr %34, ptr %3, align 8, !tbaa !69
  call void @llvm.lifetime.end.p0(i64 4, ptr %4) #6
  br label %10, !llvm.loop !83

35:                                               ; preds = %10
  call void @llvm.lifetime.end.p0(i64 8, ptr %3) #6
  br label %36

36:                                               ; preds = %35, %7
  ret void
}