; Function Attrs: nounwind uwtable
define void @lv_obj_report_style_change(ptr noundef captures(address) %0) local_unnamed_addr #0 {
  %2 = load i8, ptr getelementptr inbounds nuw (i8, ptr @lv_global, i64 72), align 8, !tbaa !59, !range !60, !noundef !61
  %3 = trunc nuw i8 %2 to i1
  br i1 %3, label %4, label %.loopexit

4:                                                ; preds = %1
  %5 = tail call ptr @lv_display_get_next(ptr noundef null) #9
  %.not9 = icmp eq ptr %5, null
  br i1 %.not9, label %.loopexit, label %.preheader

.preheader:                                       ; preds = %4, %._crit_edge
  %.0710 = phi ptr [ %16, %._crit_edge ], [ %5, %4 ]
  %6 = getelementptr inbounds nuw i8, ptr %.0710, i64 832
  %7 = load i32, ptr %6, align 8, !tbaa !71
  %.not11 = icmp eq i32 %7, 0
  br i1 %.not11, label %._crit_edge, label %.lr.ph

.lr.ph:                                           ; preds = %.preheader
  %8 = getelementptr inbounds nuw i8, ptr %.0710, i64 776
  br label %9

9:                                                ; preds = %.lr.ph, %9
  %indvars.iv = phi i64 [ 0, %.lr.ph ], [ %indvars.iv.next, %9 ]
  %10 = load ptr, ptr %8, align 8, !tbaa !82
  %11 = getelementptr inbounds nuw ptr, ptr %10, i64 %indvars.iv
  %12 = load ptr, ptr %11, align 8, !tbaa !83
  tail call fastcc void @report_style_change_core(ptr noundef %0, ptr noundef %12)
  %indvars.iv.next = add nuw nsw i64 %indvars.iv, 1
  %13 = load i32, ptr %6, align 8, !tbaa !71
  %14 = zext i32 %13 to i64
  %15 = icmp samesign ult i64 %indvars.iv.next, %14
  br i1 %15, label %9, label %._crit_edge, !llvm.loop !84

._crit_edge:                                      ; preds = %9, %.preheader
  %16 = tail call ptr @lv_display_get_next(ptr noundef nonnull %.0710) #9
  %.not = icmp eq ptr %16, null
  br i1 %.not, label %.loopexit, label %.preheader, !llvm.loop !85

.loopexit:                                        ; preds = %._crit_edge, %4, %1
  ret void
}